#include <math.h>
#include <stdio.h>
#include <stdlib.h>
#include <string.h>

int main (){
	char z1[500],z2[500];
	int l=1;
	double q,m;
	scanf("%lf",&m);
	scanf("%s%s",&z1,&z2);
		if(strlen(z1)!=strlen(z2)){
			printf("error");
			l=0;
		}
		else{
			for(int i=0;i<strlen(z1);i++){
				if((z1[i]!='A'&&z1[i]!='T'&&z1[i]!='G'&&z1[i]!='C')||(z2[i]!='A'&&z2[i]!='T'&&z2[i]!='G'&&z2[i]!='C')){
					printf("error");
					l=0;
					break;				
				}else if(z1[i]==z2[i])
					q++;
			}
		}
	if(q/strlen(z1)>m&&l==1)
		printf("yes");
	else if(l==1)
		printf("no");
return 0;
}